
Allocating common symbols
Common symbol       size              file

kbd_buf             0x6c              build/keyboard.o
thread_ready_list   0x10              build/thread.o
thread_all_list     0x10              build/thread.o
user_pool           0x2c              build/memory.o
channel_cnt         0x1               build/ide.o
cur_part            0x4               build/fs.o
k_block_descs       0xa8              build/memory.o
idle_thread         0x4               build/thread.o
intr_name           0x204             build/interrupt.o
main_thread         0x4               build/thread.o
channels            0xcc0             build/ide.o
ticks               0x4               build/timer.o
kernel_vaddr        0xc               build/memory.o
syscall_table       0x80              build/syscall-init.o
idt_table           0x204             build/interrupt.o
partition_list      0x10              build/ide.o
kernel_pool         0x2c              build/memory.o
pid_lock            0x1c              build/thread.o

Discarded input sections

 .note.GNU-stack
                0x0000000000000000        0x0 build/main.o
 .note.GNU-stack
                0x0000000000000000        0x0 build/init.o
 .note.GNU-stack
                0x0000000000000000        0x0 build/interrupt.o
 .note.GNU-stack
                0x0000000000000000        0x0 build/timer.o
 .note.GNU-stack
                0x0000000000000000        0x0 build/debug.o
 .note.GNU-stack
                0x0000000000000000        0x0 build/string.o
 .note.GNU-stack
                0x0000000000000000        0x0 build/bitmap.o
 .note.GNU-stack
                0x0000000000000000        0x0 build/memory.o
 .note.GNU-stack
                0x0000000000000000        0x0 build/thread.o
 .note.GNU-stack
                0x0000000000000000        0x0 build/list.o
 .note.GNU-stack
                0x0000000000000000        0x0 build/sync.o
 .note.GNU-stack
                0x0000000000000000        0x0 build/console.o
 .note.GNU-stack
                0x0000000000000000        0x0 build/keyboard.o
 .note.GNU-stack
                0x0000000000000000        0x0 build/ioqueue.o
 .note.GNU-stack
                0x0000000000000000        0x0 build/tss.o
 .note.GNU-stack
                0x0000000000000000        0x0 build/process.o
 .note.GNU-stack
                0x0000000000000000        0x0 build/syscall.o
 .note.GNU-stack
                0x0000000000000000        0x0 build/syscall-init.o
 .note.GNU-stack
                0x0000000000000000        0x0 build/stdio.o
 .note.GNU-stack
                0x0000000000000000        0x0 build/stdio-kernel.o
 .note.GNU-stack
                0x0000000000000000        0x0 build/ide.o
 .note.GNU-stack
                0x0000000000000000        0x0 build/fs.o

Memory Configuration

Name             Origin             Length             Attributes
*default*        0x0000000000000000 0xffffffffffffffff

Linker script and memory map

Address of section .text set to 0xc0001500
LOAD build/main.o
LOAD build/init.o
LOAD build/interrupt.o
LOAD build/timer.o
LOAD build/kernel.o
LOAD build/print.o
LOAD build/debug.o
LOAD build/string.o
LOAD build/bitmap.o
LOAD build/memory.o
LOAD build/thread.o
LOAD build/list.o
LOAD build/switch.o
LOAD build/sync.o
LOAD build/console.o
LOAD build/keyboard.o
LOAD build/ioqueue.o
LOAD build/tss.o
LOAD build/process.o
LOAD build/syscall.o
LOAD build/syscall-init.o
LOAD build/stdio.o
LOAD build/stdio-kernel.o
LOAD build/ide.o
LOAD build/fs.o
                [!provide]                        PROVIDE (__executable_start = SEGMENT_START ("text-segment", 0x8048000))
                0x00000000080480d4                . = (SEGMENT_START ("text-segment", 0x8048000) + SIZEOF_HEADERS)

.interp
 *(.interp)

.note.gnu.build-id
 *(.note.gnu.build-id)

.hash
 *(.hash)

.gnu.hash
 *(.gnu.hash)

.dynsym
 *(.dynsym)

.dynstr
 *(.dynstr)

.gnu.version
 *(.gnu.version)

.gnu.version_d
 *(.gnu.version_d)

.gnu.version_r
 *(.gnu.version_r)

.rel.dyn        0x00000000080480d4        0x0
 *(.rel.init)
 *(.rel.text .rel.text.* .rel.gnu.linkonce.t.*)
 .rel.text      0x00000000080480d4        0x0 build/main.o
 *(.rel.fini)
 *(.rel.rodata .rel.rodata.* .rel.gnu.linkonce.r.*)
 *(.rel.data.rel.ro .rel.data.rel.ro.* .rel.gnu.linkonce.d.rel.ro.*)
 *(.rel.data .rel.data.* .rel.gnu.linkonce.d.*)
 *(.rel.tdata .rel.tdata.* .rel.gnu.linkonce.td.*)
 *(.rel.tbss .rel.tbss.* .rel.gnu.linkonce.tb.*)
 *(.rel.ctors)
 *(.rel.dtors)
 *(.rel.got)
 .rel.got       0x00000000080480d4        0x0 build/main.o
 *(.rel.bss .rel.bss.* .rel.gnu.linkonce.b.*)
 *(.rel.ifunc)

.rel.plt        0x00000000080480d4        0x0
 *(.rel.plt)
                [!provide]                        PROVIDE (__rel_iplt_start = .)
 *(.rel.iplt)
 .rel.iplt      0x00000000080480d4        0x0 build/main.o
                [!provide]                        PROVIDE (__rel_iplt_end = .)
                0x0000000008049000                . = ALIGN (CONSTANT (MAXPAGESIZE))

.init
 *(SORT_NONE(.init))

.plt            0x0000000008049000        0x0
 *(.plt)
 *(.iplt)
 .iplt          0x0000000008049000        0x0 build/main.o

.plt.got
 *(.plt.got)

.plt.sec
 *(.plt.sec)

.text           0x00000000c0001500     0x5ab7
 *(.text.unlikely .text.*_unlikely .text.unlikely.*)
 *(.text.exit .text.exit.*)
 *(.text.startup .text.startup.*)
 *(.text.hot .text.hot.*)
 *(SORT_BY_NAME(.text.sorted.*))
 *(.text .stub .text.* .gnu.linkonce.t.*)
 .text          0x00000000c0001500      0x2c9 build/main.o
                0x00000000c0001500                main
                0x00000000c0001535                k_thread_a
                0x00000000c00015f2                k_thread_b
                0x00000000c00016af                u_prog_a
                0x00000000c000173c                u_prog_b
 .text          0x00000000c00017c9       0x46 build/init.o
                0x00000000c00017c9                init_all
 .text          0x00000000c000180f      0x47e build/interrupt.o
                0x00000000c0001b80                intr_enable
                0x00000000c0001ba9                intr_disable
                0x00000000c0001bd2                intr_set_status
                0x00000000c0001bf0                intr_get_status
                0x00000000c0001c13                register_handler
                0x00000000c0001c2f                idt_init
 .text          0x00000000c0001c8d      0x214 build/timer.o
                0x00000000c0001de9                mtime_sleep
                0x00000000c0001e41                timer_init
 *fill*         0x00000000c0001ea1        0xf 
 .text          0x00000000c0001eb0      0x565 build/kernel.o
                0x00000000c0001eb0                intr_exit
                0x00000000c00023f1                syscall_handler
 *fill*         0x00000000c0002415        0xb 
 .text          0x00000000c0002420      0x172 build/print.o
                0x00000000c0002420                put_str
                0x00000000c000243e                put_char
                0x00000000c000250b                put_int
                0x00000000c000256e                set_cursor
 .text          0x00000000c0002592       0xa5 build/debug.o
                0x00000000c0002592                panic_spin
 .text          0x00000000c0002637      0x451 build/string.o
                0x00000000c0002637                memset
                0x00000000c0002693                memcpy
                0x00000000c00026fb                memcmp
                0x00000000c000278e                strcpy
                0x00000000c00027f1                strlen
                0x00000000c000284b                strcmp
                0x00000000c00028d2                strchr
                0x00000000c0002938                strrchr
                0x00000000c00029a1                strcat
                0x00000000c0002a1b                strchrs
 .text          0x00000000c0002a88      0x270 build/bitmap.o
                0x00000000c0002a88                bitmap_init
                0x00000000c0002aaf                bitmap_scan_test
                0x00000000c0002af1                bitmap_scan
                0x00000000c0002c3f                bitmap_set
 .text          0x00000000c0002cf8     0x10d4 build/memory.o
                0x00000000c0002e1e                pte_ptr
                0x00000000c0002e4f                pde_ptr
                0x00000000c0002ff0                malloc_page
                0x00000000c00030ba                get_kernel_pages
                0x00000000c00030fe                get_user_pages
                0x00000000c0003154                get_a_page
                0x00000000c00032d0                addr_v2p
                0x00000000c00034c2                block_desc_init
                0x00000000c000353f                mem_init
                0x00000000c00035a8                sys_malloc
                0x00000000c00038b8                pfree
                0x00000000c0003a00                mfree_page
                0x00000000c0003bcb                sys_free
 .text          0x00000000c0003dcc      0x699 build/thread.o
                0x00000000c0003e19                running_thread
                0x00000000c0003e44                thread_create
                0x00000000c0003eba                init_thread
                0x00000000c0003f64                thread_start
                0x00000000c00040df                schedule
                0x00000000c00041fb                thread_block
                0x00000000c0004262                thread_yield
                0x00000000c00042e8                thread_unblock
                0x00000000c00043f3                thread_init
 .text          0x00000000c0004465      0x218 build/list.o
                0x00000000c0004465                list_init
                0x00000000c0004492                list_insert_before
                0x00000000c00044d3                list_push
                0x00000000c00044f0                list_append
                0x00000000c000450d                list_remove
                0x00000000c0004543                list_pop
                0x00000000c0004596                elem_find
                0x00000000c00045d1                list_traversal
                0x00000000c000462f                list_len
                0x00000000c0004664                list_empty
 *fill*         0x00000000c000467d        0x3 
 .text          0x00000000c0004680       0x15 build/switch.o
                0x00000000c0004680                switch_to
 .text          0x00000000c0004695      0x347 build/sync.o
                0x00000000c0004695                sema_init
                0x00000000c00046ba                lock_init
                0x00000000c00046eb                sema_down
                0x00000000c00047ff                sema_up
                0x00000000c00048b5                lock_acquire
                0x00000000c0004931                lock_release
 .text          0x00000000c00049dc       0x9a build/console.o
                0x00000000c00049dc                console_init
                0x00000000c00049f0                console_acquire
                0x00000000c0004a04                console_release
                0x00000000c0004a18                console_put_str
                0x00000000c0004a35                console_put_char
                0x00000000c0004a59                console_put_int
 .text          0x00000000c0004a76      0x2ca build/keyboard.o
                0x00000000c0004d00                keyboard_init
 .text          0x00000000c0004d40      0x2f1 build/ioqueue.o
                0x00000000c0004d40                ioqueue_init
                0x00000000c0004d9d                ioq_full
                0x00000000c0004dee                ioq_empty
                0x00000000c0004ed3                ioq_getchar
                0x00000000c0004f81                ioq_putchar
 .text          0x00000000c0005031      0x1a9 build/tss.o
                0x00000000c0005031                update_tss_esp
                0x00000000c00050ac                tss_init
 .text          0x00000000c00051da      0x367 build/process.o
                0x00000000c00051da                start_process
                0x00000000c00052e0                page_dir_activate
                0x00000000c0005310                process_activate
                0x00000000c0005362                create_page_dir
                0x00000000c00053d3                create_user_vaddr_bitmap
                0x00000000c0005417                process_execute
 .text          0x00000000c0005541       0x6f build/syscall.o
                0x00000000c0005541                getpid
                0x00000000c0005556                write
                0x00000000c0005575                malloc
                0x00000000c0005594                free
 .text          0x00000000c00055b0       0x78 build/syscall-init.o
                0x00000000c00055b0                sys_getpid
                0x00000000c00055c2                sys_write
                0x00000000c00055e0                syscall_init
 .text          0x00000000c0005628      0x29f build/stdio.o
                0x00000000c00056ae                vsprintf
                0x00000000c0005831                sprintf
                0x00000000c0005865                printf
 .text          0x00000000c00058c7       0x62 build/stdio-kernel.o
                0x00000000c00058c7                printk
 .text          0x00000000c0005929      0xdfd build/ide.o
                0x00000000c0005c43                ide_read
                0x00000000c0005dd5                ide_write
                0x00000000c0005f67                intr_hd_handler
                0x00000000c000652c                ide_init
 .text          0x00000000c0006726      0x891 build/fs.o
                0x00000000c0006dfd                filesys_init
 *(.gnu.warning)

.fini
 *(SORT_NONE(.fini))
                [!provide]                        PROVIDE (__etext = .)
                [!provide]                        PROVIDE (_etext = .)
                [!provide]                        PROVIDE (etext = .)
                0x00000000c0007000                . = ALIGN (CONSTANT (MAXPAGESIZE))
                0x00000000c0007000                . = SEGMENT_START ("rodata-segment", (ALIGN (CONSTANT (MAXPAGESIZE)) + (. & (CONSTANT (MAXPAGESIZE) - 0x1))))

.rodata         0x00000000c0007000     0x12ea
 *(.rodata .rodata.* .gnu.linkonce.r.*)
 .rodata        0x00000000c0007000       0x98 build/main.o
 .rodata        0x00000000c0007098        0xa build/init.o
 *fill*         0x00000000c00070a2        0x2 
 .rodata        0x00000000c00070a4      0x2c9 build/interrupt.o
 *fill*         0x00000000c000736d        0x3 
 .rodata        0x00000000c0007370       0x87 build/timer.o
 .rodata        0x00000000c00073f7       0x3b build/debug.o
 .rodata        0x00000000c0007432       0xa2 build/string.o
 .rodata        0x00000000c00074d4       0x68 build/bitmap.o
 .rodata        0x00000000c000753c      0x399 build/memory.o
 *fill*         0x00000000c00078d5        0x3 
 .rodata        0x00000000c00078d8      0x2ec build/thread.o
 .rodata        0x00000000c0007bc4       0x3c build/list.o
 .rodata        0x00000000c0007c00      0x12f build/sync.o
 .rodata        0x00000000c0007d2f       0x38 build/keyboard.o
 *fill*         0x00000000c0007d67        0x1 
 .rodata        0x00000000c0007d68       0x9d build/ioqueue.o
 .rodata        0x00000000c0007e05       0x27 build/tss.o
 .rodata        0x00000000c0007e2c       0xdd build/process.o
 .rodata        0x00000000c0007f09       0x27 build/syscall-init.o
 .rodata        0x00000000c0007f30      0x1ec build/ide.o
 .rodata        0x00000000c000811c      0x1ce build/fs.o

.rodata1
 *(.rodata1)

.eh_frame_hdr
 *(.eh_frame_hdr)
 *(.eh_frame_entry .eh_frame_entry.*)

.eh_frame
 *(.eh_frame)
 *(.eh_frame.*)

.gcc_except_table
 *(.gcc_except_table .gcc_except_table.*)

.gnu_extab
 *(.gnu_extab*)

.exception_ranges
 *(.exception_ranges*)
                0x00000000c00092ea                . = DATA_SEGMENT_ALIGN (CONSTANT (MAXPAGESIZE), CONSTANT (COMMONPAGESIZE))

.eh_frame
 *(.eh_frame)
 *(.eh_frame.*)

.gnu_extab
 *(.gnu_extab)

.gcc_except_table
 *(.gcc_except_table .gcc_except_table.*)

.exception_ranges
 *(.exception_ranges*)

.tdata          0x00000000c00092ea        0x0
                [!provide]                        PROVIDE (__tdata_start = .)
 *(.tdata .tdata.* .gnu.linkonce.td.*)

.tbss
 *(.tbss .tbss.* .gnu.linkonce.tb.*)
 *(.tcommon)

.preinit_array  0x00000000c00092ea        0x0
                [!provide]                        PROVIDE (__preinit_array_start = .)
 *(.preinit_array)
                [!provide]                        PROVIDE (__preinit_array_end = .)

.init_array     0x00000000c00092ea        0x0
                [!provide]                        PROVIDE (__init_array_start = .)
 *(SORT_BY_INIT_PRIORITY(.init_array.*) SORT_BY_INIT_PRIORITY(.ctors.*))
 *(.init_array EXCLUDE_FILE(*crtend?.o *crtend.o *crtbegin?.o *crtbegin.o) .ctors)
                [!provide]                        PROVIDE (__init_array_end = .)

.fini_array     0x00000000c00092ea        0x0
                [!provide]                        PROVIDE (__fini_array_start = .)
 *(SORT_BY_INIT_PRIORITY(.fini_array.*) SORT_BY_INIT_PRIORITY(.dtors.*))
 *(.fini_array EXCLUDE_FILE(*crtend?.o *crtend.o *crtbegin?.o *crtbegin.o) .dtors)
                [!provide]                        PROVIDE (__fini_array_end = .)

.ctors
 *crtbegin.o(.ctors)
 *crtbegin?.o(.ctors)
 *(EXCLUDE_FILE(*crtend?.o *crtend.o) .ctors)
 *(SORT_BY_NAME(.ctors.*))
 *(.ctors)

.dtors
 *crtbegin.o(.dtors)
 *crtbegin?.o(.dtors)
 *(EXCLUDE_FILE(*crtend?.o *crtend.o) .dtors)
 *(SORT_BY_NAME(.dtors.*))
 *(.dtors)

.jcr
 *(.jcr)

.data.rel.ro
 *(.data.rel.ro.local* .gnu.linkonce.d.rel.ro.local.*)
 *(.data.rel.ro .data.rel.ro.* .gnu.linkonce.d.rel.ro.*)

.dynamic
 *(.dynamic)

.got            0x00000000c00092ec        0x0
 *(.got)
 .got           0x00000000c00092ec        0x0 build/main.o
 *(.igot)
                0x00000000c00092ec                . = DATA_SEGMENT_RELRO_END (., (SIZEOF (.got.plt) >= 0xc)?0xc:0x0)

.got.plt        0x00000000c00092ec        0x0
 *(.got.plt)
 .got.plt       0x00000000c00092ec        0x0 build/main.o
 *(.igot.plt)
 .igot.plt      0x00000000c00092ec        0x0 build/main.o

.data           0x00000000c0009300      0x156
 *(.data .data.* .gnu.linkonce.d.*)
 .data          0x00000000c0009300        0x0 build/main.o
 .data          0x00000000c0009300        0x0 build/init.o
 .data          0x00000000c0009300        0x0 build/interrupt.o
 .data          0x00000000c0009300        0x0 build/timer.o
 .data          0x00000000c0009300       0xc0 build/kernel.o
                0x00000000c0009300                intr_entry_table
 .data          0x00000000c00093c0        0x8 build/print.o
 .data          0x00000000c00093c8        0x0 build/debug.o
 .data          0x00000000c00093c8        0x0 build/string.o
 .data          0x00000000c00093c8        0x0 build/bitmap.o
 .data          0x00000000c00093c8        0x0 build/memory.o
 .data          0x00000000c00093c8        0x0 build/thread.o
 .data          0x00000000c00093c8        0x0 build/list.o
 .data          0x00000000c00093c8        0x0 build/sync.o
 .data          0x00000000c00093c8        0x0 build/console.o
 *fill*         0x00000000c00093c8       0x18 
 .data          0x00000000c00093e0       0x76 build/keyboard.o
 .data          0x00000000c0009456        0x0 build/ioqueue.o
 .data          0x00000000c0009456        0x0 build/tss.o
 .data          0x00000000c0009456        0x0 build/process.o
 .data          0x00000000c0009456        0x0 build/syscall.o
 .data          0x00000000c0009456        0x0 build/syscall-init.o
 .data          0x00000000c0009456        0x0 build/stdio.o
 .data          0x00000000c0009456        0x0 build/stdio-kernel.o
 .data          0x00000000c0009456        0x0 build/ide.o
 .data          0x00000000c0009456        0x0 build/fs.o

.data1
 *(.data1)
                0x00000000c0009456                _edata = .
                [!provide]                        PROVIDE (edata = .)
                0x00000000c0009456                . = .
                0x00000000c0009456                __bss_start = .

.bss            0x00000000c0009460     0x1894
 *(.dynbss)
 *(.bss .bss.* .gnu.linkonce.b.*)
 .bss           0x00000000c0009460        0x8 build/main.o
                0x00000000c0009460                prog_a_pid
                0x00000000c0009464                prog_b_pid
 .bss           0x00000000c0009468        0x0 build/init.o
 *fill*         0x00000000c0009468       0x18 
 .bss           0x00000000c0009480      0x408 build/interrupt.o
 .bss           0x00000000c0009888        0x0 build/timer.o
 .bss           0x00000000c0009888        0x0 build/debug.o
 .bss           0x00000000c0009888        0x0 build/string.o
 .bss           0x00000000c0009888        0x0 build/bitmap.o
 .bss           0x00000000c0009888        0x0 build/memory.o
 .bss           0x00000000c0009888        0x6 build/thread.o
 .bss           0x00000000c000988e        0x0 build/list.o
 .bss           0x00000000c000988e        0x0 build/sync.o
 *fill*         0x00000000c000988e        0x2 
 .bss           0x00000000c0009890       0x1c build/console.o
 .bss           0x00000000c00098ac       0x14 build/keyboard.o
 .bss           0x00000000c00098c0        0x0 build/ioqueue.o
 .bss           0x00000000c00098c0       0x6c build/tss.o
 .bss           0x00000000c000992c        0x0 build/process.o
 .bss           0x00000000c000992c        0x0 build/syscall.o
 .bss           0x00000000c000992c        0x0 build/syscall-init.o
 .bss           0x00000000c000992c        0x0 build/stdio.o
 .bss           0x00000000c000992c        0x0 build/stdio-kernel.o
 .bss           0x00000000c000992c        0x6 build/ide.o
                0x00000000c000992c                ext_lba_base
                0x00000000c0009930                p_no
                0x00000000c0009931                l_no
 .bss           0x00000000c0009932        0x0 build/fs.o
 *(COMMON)
 *fill*         0x00000000c0009932        0xe 
 COMMON         0x00000000c0009940      0x424 build/interrupt.o
                0x00000000c0009940                intr_name
                0x00000000c0009b60                idt_table
 COMMON         0x00000000c0009d64        0x4 build/timer.o
                0x00000000c0009d64                ticks
 *fill*         0x00000000c0009d68       0x18 
 COMMON         0x00000000c0009d80      0x12c build/memory.o
                0x00000000c0009d80                user_pool
                0x00000000c0009dc0                k_block_descs
                0x00000000c0009e68                kernel_vaddr
                0x00000000c0009e80                kernel_pool
 COMMON         0x00000000c0009eac       0x44 build/thread.o
                0x00000000c0009eac                thread_ready_list
                0x00000000c0009ebc                thread_all_list
                0x00000000c0009ecc                idle_thread
                0x00000000c0009ed0                main_thread
                0x00000000c0009ed4                pid_lock
 *fill*         0x00000000c0009ef0       0x10 
 COMMON         0x00000000c0009f00       0x6c build/keyboard.o
                0x00000000c0009f00                kbd_buf
 *fill*         0x00000000c0009f6c       0x14 
 COMMON         0x00000000c0009f80       0x80 build/syscall-init.o
                0x00000000c0009f80                syscall_table
 COMMON         0x00000000c000a000      0xcf0 build/ide.o
                0x00000000c000a000                channel_cnt
                0x00000000c000a020                channels
                0x00000000c000ace0                partition_list
 COMMON         0x00000000c000acf0        0x4 build/fs.o
                0x00000000c000acf0                cur_part
                0x00000000c000acf4                . = ALIGN ((. != 0x0)?0x4:0x1)
                0x00000000c000acf4                . = ALIGN (0x4)
                0x00000000c000acf4                . = SEGMENT_START ("ldata-segment", .)
                0x00000000c000acf4                . = ALIGN (0x4)
                0x00000000c000acf4                _end = .
                [!provide]                        PROVIDE (end = .)
                0x00000000c000acf4                . = DATA_SEGMENT_END (.)

.stab
 *(.stab)

.stabstr
 *(.stabstr)

.stab.excl
 *(.stab.excl)

.stab.exclstr
 *(.stab.exclstr)

.stab.index
 *(.stab.index)

.stab.indexstr
 *(.stab.indexstr)

.comment        0x0000000000000000       0x2a
 *(.comment)
 .comment       0x0000000000000000       0x2a build/main.o
                                         0x2b (size before relaxing)
 .comment       0x000000000000002a       0x2b build/init.o
 .comment       0x000000000000002a       0x2b build/interrupt.o
 .comment       0x000000000000002a       0x2b build/timer.o
 .comment       0x000000000000002a       0x2b build/debug.o
 .comment       0x000000000000002a       0x2b build/string.o
 .comment       0x000000000000002a       0x2b build/bitmap.o
 .comment       0x000000000000002a       0x2b build/memory.o
 .comment       0x000000000000002a       0x2b build/thread.o
 .comment       0x000000000000002a       0x2b build/list.o
 .comment       0x000000000000002a       0x2b build/sync.o
 .comment       0x000000000000002a       0x2b build/console.o
 .comment       0x000000000000002a       0x2b build/keyboard.o
 .comment       0x000000000000002a       0x2b build/ioqueue.o
 .comment       0x000000000000002a       0x2b build/tss.o
 .comment       0x000000000000002a       0x2b build/process.o
 .comment       0x000000000000002a       0x2b build/syscall.o
 .comment       0x000000000000002a       0x2b build/syscall-init.o
 .comment       0x000000000000002a       0x2b build/stdio.o
 .comment       0x000000000000002a       0x2b build/stdio-kernel.o
 .comment       0x000000000000002a       0x2b build/ide.o
 .comment       0x000000000000002a       0x2b build/fs.o

.gnu.build.attributes
 *(.gnu.build.attributes .gnu.build.attributes.*)

.debug
 *(.debug)

.line
 *(.line)

.debug_srcinfo
 *(.debug_srcinfo)

.debug_sfnames
 *(.debug_sfnames)

.debug_aranges
 *(.debug_aranges)

.debug_pubnames
 *(.debug_pubnames)

.debug_info
 *(.debug_info .gnu.linkonce.wi.*)

.debug_abbrev
 *(.debug_abbrev)

.debug_line
 *(.debug_line .debug_line.* .debug_line_end)

.debug_frame
 *(.debug_frame)

.debug_str
 *(.debug_str)

.debug_loc
 *(.debug_loc)

.debug_macinfo
 *(.debug_macinfo)

.debug_weaknames
 *(.debug_weaknames)

.debug_funcnames
 *(.debug_funcnames)

.debug_typenames
 *(.debug_typenames)

.debug_varnames
 *(.debug_varnames)

.debug_pubtypes
 *(.debug_pubtypes)

.debug_ranges
 *(.debug_ranges)

.debug_macro
 *(.debug_macro)

.debug_addr
 *(.debug_addr)

.gnu.attributes
 *(.gnu.attributes)

/DISCARD/
 *(.note.GNU-stack)
 *(.gnu_debuglink)
 *(.gnu.lto_*)
OUTPUT(build/kernel.bin elf32-i386)
